target datalayout = "e-m:e-p270:32:32-p271:32:32-p272:64:64-i64:64-i128:128-f80:128-n8:16:32:64-S128"
target triple = "x86_64-unknown-linux-gnu"

%struct.grpc_closure = type { %union.anon, ptr, ptr, %union.anon.9 }
%union.anon = type { ptr }
%union.anon.9 = type { i64 }
%"class.grpc_core::promise_filter_detail::BaseCallData::CapturedBatch" = type { ptr }
%struct.grpc_transport_stream_op_batch = type { ptr, ptr, i8, %struct.grpc_handler_private_op_data }
%struct.grpc_handler_private_op_data = type { ptr, %struct.grpc_closure }

@.str.5 = private unnamed_addr constant [132 x i8] c"generated/home/dtcxzyw/WorkSpace/Projects/compilers/llvm-opt-benchmark/bench/grpc/grpc/src/core/lib/channel/promise_based_filter.cc\00", align 1
@.str.7 = private unnamed_addr constant [17 x i8] c"batch != nullptr\00", align 1

; Function Attrs: noreturn nounwind uwtable
define linkonce_odr hidden void @__clang_call_terminate(ptr noundef %0) #7 comdat {
  %2 = call ptr @__cxa_begin_catch(ptr %0) #3
  call void @_ZSt9terminatev() #16
  unreachable
}

; Function Attrs: mustprogress nounwind uwtable
define linkonce_odr noundef ptr @_ZSt10__exchangeIP30grpc_transport_stream_op_batchDnET_RS2_OT0_(ptr noundef nonnull align 8 dereferenceable(8) %__obj, ptr noundef nonnull align 8 dereferenceable(8) %__new_val) #5 comdat {
entry:
  %__obj.addr = alloca ptr, align 8
  %__new_val.addr = alloca ptr, align 8
  %__old_val = alloca ptr, align 8
  store ptr %__obj, ptr %__obj.addr, align 8
  store ptr %__new_val, ptr %__new_val.addr, align 8
  %0 = load ptr, ptr %__obj.addr, align 8
  %1 = load ptr, ptr %0, align 8
  store ptr %1, ptr %__old_val, align 8
  %2 = load ptr, ptr %__obj.addr, align 8
  store ptr null, ptr %2, align 8
  %3 = load ptr, ptr %__old_val, align 8
  ret ptr %3
}

; Function Attrs: mustprogress nounwind uwtable
define internal noundef ptr @_ZN9grpc_core21promise_filter_detail12_GLOBAL__N_113RefCountFieldEP30grpc_transport_stream_op_batch(ptr noundef %b) #5 {
entry:
  %b.addr = alloca ptr, align 8
  store ptr %b, ptr %b.addr, align 8
  %0 = load ptr, ptr %b.addr, align 8
  %handler_private = getelementptr inbounds %struct.grpc_transport_stream_op_batch, ptr %0, i32 0, i32 3
  %closure = getelementptr inbounds %struct.grpc_handler_private_op_data, ptr %handler_private, i32 0, i32 1
  %error_data = getelementptr inbounds %struct.grpc_closure, ptr %closure, i32 0, i32 3
  ret ptr %error_data
}

; Function Attrs: mustprogress nounwind uwtable
define linkonce_odr noundef ptr @_ZSt8exchangeIP30grpc_transport_stream_op_batchDnET_RS2_OT0_(ptr noundef nonnull align 8 dereferenceable(8) %__obj, ptr noundef nonnull align 8 dereferenceable(8) %__new_val) #5 comdat personality ptr @__gxx_personality_v0 {
entry:
  %__obj.addr = alloca ptr, align 8
  %__new_val.addr = alloca ptr, align 8
  store ptr %__obj, ptr %__obj.addr, align 8
  store ptr %__new_val, ptr %__new_val.addr, align 8
  %0 = load ptr, ptr %__obj.addr, align 8
  %1 = load ptr, ptr %__new_val.addr, align 8
  %call = invoke noundef ptr @_ZSt10__exchangeIP30grpc_transport_stream_op_batchDnET_RS2_OT0_(ptr noundef nonnull align 8 dereferenceable(8) %0, ptr noundef nonnull align 8 dereferenceable(8) %1)
          to label %invoke.cont unwind label %terminate.lpad

invoke.cont:                                      ; preds = %entry
  ret ptr %call

terminate.lpad:                                   ; preds = %entry
  %2 = landingpad { ptr, i32 }
          catch ptr null
  %3 = extractvalue { ptr, i32 } %2, 0
  call void @__clang_call_terminate(ptr %3) #16
  unreachable
}

; Function Attrs: mustprogress uwtable
define void @_ZN9grpc_core21promise_filter_detail12BaseCallData13CapturedBatch12CompleteWithEPNS1_7FlusherE(ptr noundef nonnull align 8 dereferenceable(8) %this, ptr noundef %releaser) #4 align 2 {
entry:
  %this.addr = alloca ptr, align 8
  %releaser.addr = alloca ptr, align 8
  %batch = alloca ptr, align 8
  %ref.tmp = alloca ptr, align 8
  %refcnt = alloca ptr, align 8
  store ptr %this, ptr %this.addr, align 8
  store ptr %releaser, ptr %releaser.addr, align 8
  %this1 = load ptr, ptr %this.addr, align 8
  %batch_ = getelementptr inbounds %"class.grpc_core::promise_filter_detail::BaseCallData::CapturedBatch", ptr %this1, i32 0, i32 0
  store ptr null, ptr %ref.tmp, align 8
  %call = call noundef ptr @_ZSt8exchangeIP30grpc_transport_stream_op_batchDnET_RS2_OT0_(ptr noundef nonnull align 8 dereferenceable(8) %batch_, ptr noundef nonnull align 8 dereferenceable(8) %ref.tmp) #3
  store ptr %call, ptr %batch, align 8
  br label %do.body

do.body:                                          ; preds = %entry
  %0 = load ptr, ptr %batch, align 8
  %cmp = icmp ne ptr %0, null
  %lnot = xor i1 %cmp, true
  br i1 %lnot, label %if.then, label %if.end

if.then:                                          ; preds = %do.body
  call void @gpr_assertion_failed(ptr noundef @.str.5, i32 noundef 232, ptr noundef @.str.7) #17
  unreachable

if.end:                                           ; preds = %do.body
  br label %do.end

do.end:                                           ; preds = %if.end
  %1 = load ptr, ptr %batch, align 8
  %call2 = call noundef ptr @_ZN9grpc_core21promise_filter_detail12_GLOBAL__N_113RefCountFieldEP30grpc_transport_stream_op_batch(ptr noundef %1)
  store ptr %call2, ptr %refcnt, align 8
  %2 = load ptr, ptr %refcnt, align 8
  %3 = load i64, ptr %2, align 8
  %cmp3 = icmp eq i64 %3, 0
  br i1 %cmp3, label %if.then4, label %if.end5

if.then4:                                         ; preds = %do.end
  br label %if.end8

if.end5:                                          ; preds = %do.end
  %4 = load ptr, ptr %refcnt, align 8
  %5 = load i64, ptr %4, align 8
  %dec = add i64 %5, -1
  store i64 %dec, ptr %4, align 8
  %cmp6 = icmp eq i64 %dec, 0
  br i1 %cmp6, label %if.then7, label %if.end8

if.then7:                                         ; preds = %if.end5
  %6 = load ptr, ptr %releaser.addr, align 8
  %7 = load ptr, ptr %batch, align 8
  call void @_ZN9grpc_core21promise_filter_detail12BaseCallData7Flusher8CompleteEP30grpc_transport_stream_op_batch(ptr noundef nonnull align 8 dereferenceable(184) %6, ptr noundef %7)
  br label %if.end8

if.end8:                                          ; preds = %if.then7, %if.end5, %if.then4
  ret void
}