; Function Attrs: mustprogress uwtable
define void @_ZN9grpc_core21promise_filter_detail12BaseCallData13CapturedBatch12CompleteWithEPNS1_7FlusherE(ptr nocapture noundef nonnull align 8 dereferenceable(8) %this, ptr noundef %releaser) local_unnamed_addr #3 align 2 personality ptr @__gxx_personality_v0 {
entry:
  %0 = load ptr, ptr %this, align 8
  store ptr null, ptr %this, align 8
  %cmp.not = icmp eq ptr %0, null
  br i1 %cmp.not, label %if.then, label %do.end

if.then:                                          ; preds = %entry
  tail call void @gpr_assertion_failed(ptr noundef nonnull @.str.5, i32 noundef 232, ptr noundef nonnull @.str.7) #33
  unreachable

do.end:                                           ; preds = %entry
  %error_data.i = getelementptr inbounds i8, ptr %0, i64 56
  %1 = load i64, ptr %error_data.i, align 8
  %cmp3 = icmp eq i64 %1, 0
  br i1 %cmp3, label %if.end8, label %if.end5

if.end5:                                          ; preds = %do.end
  %dec = add i64 %1, -1
  store i64 %dec, ptr %error_data.i, align 8
  %cmp6 = icmp eq i64 %dec, 0
  br i1 %cmp6, label %if.then7, label %if.end8

if.then7:                                         ; preds = %if.end5
  tail call void @_ZN9grpc_core21promise_filter_detail12BaseCallData7Flusher8CompleteEP30grpc_transport_stream_op_batch(ptr noundef nonnull align 8 dereferenceable(184) %releaser, ptr noundef nonnull %0)
  br label %if.end8

if.end8:                                          ; preds = %do.end, %if.then7, %if.end5
  ret void
}